
bug.exe:     file format elf64-x86-64


Disassembly of section .init:

00000000004006f8 <_init>:
  4006f8:	48 83 ec 08          	sub    $0x8,%rsp
  4006fc:	e8 cb 00 00 00       	callq  4007cc <call_gmon_start>
  400701:	e8 ca 01 00 00       	callq  4008d0 <frame_dummy>
  400706:	e8 55 05 00 00       	callq  400c60 <__do_global_ctors_aux>
  40070b:	48 83 c4 08          	add    $0x8,%rsp
  40070f:	c3                   	retq   

Disassembly of section .plt:

0000000000400710 <__cilkrts_sync@plt-0x10>:
  400710:	ff 35 aa 0b 20 00    	pushq  0x200baa(%rip)        # 6012c0 <_GLOBAL_OFFSET_TABLE_+0x8>
  400716:	ff 25 ac 0b 20 00    	jmpq   *0x200bac(%rip)        # 6012c8 <_GLOBAL_OFFSET_TABLE_+0x10>
  40071c:	0f 1f 40 00          	nopl   0x0(%rax)

0000000000400720 <__cilkrts_sync@plt>:
  400720:	ff 25 aa 0b 20 00    	jmpq   *0x200baa(%rip)        # 6012d0 <_GLOBAL_OFFSET_TABLE_+0x18>
  400726:	68 00 00 00 00       	pushq  $0x0
  40072b:	e9 e0 ff ff ff       	jmpq   400710 <_init+0x18>

0000000000400730 <__cilkrts_leave_frame@plt>:
  400730:	ff 25 a2 0b 20 00    	jmpq   *0x200ba2(%rip)        # 6012d8 <_GLOBAL_OFFSET_TABLE_+0x20>
  400736:	68 01 00 00 00       	pushq  $0x1
  40073b:	e9 d0 ff ff ff       	jmpq   400710 <_init+0x18>

0000000000400740 <printf@plt>:
  400740:	ff 25 9a 0b 20 00    	jmpq   *0x200b9a(%rip)        # 6012e0 <_GLOBAL_OFFSET_TABLE_+0x28>
  400746:	68 02 00 00 00       	pushq  $0x2
  40074b:	e9 c0 ff ff ff       	jmpq   400710 <_init+0x18>

0000000000400750 <__cilkrts_enter_frame@plt>:
  400750:	ff 25 92 0b 20 00    	jmpq   *0x200b92(%rip)        # 6012e8 <_GLOBAL_OFFSET_TABLE_+0x30>
  400756:	68 03 00 00 00       	pushq  $0x3
  40075b:	e9 b0 ff ff ff       	jmpq   400710 <_init+0x18>

0000000000400760 <__cilkrts_ivar_clear@plt>:
  400760:	ff 25 8a 0b 20 00    	jmpq   *0x200b8a(%rip)        # 6012f0 <_GLOBAL_OFFSET_TABLE_+0x38>
  400766:	68 04 00 00 00       	pushq  $0x4
  40076b:	e9 a0 ff ff ff       	jmpq   400710 <_init+0x18>

0000000000400770 <__libc_start_main@plt>:
  400770:	ff 25 82 0b 20 00    	jmpq   *0x200b82(%rip)        # 6012f8 <_GLOBAL_OFFSET_TABLE_+0x40>
  400776:	68 05 00 00 00       	pushq  $0x5
  40077b:	e9 90 ff ff ff       	jmpq   400710 <_init+0x18>

0000000000400780 <__cilkrts_ivar_read@plt>:
  400780:	ff 25 7a 0b 20 00    	jmpq   *0x200b7a(%rip)        # 601300 <_GLOBAL_OFFSET_TABLE_+0x48>
  400786:	68 06 00 00 00       	pushq  $0x6
  40078b:	e9 80 ff ff ff       	jmpq   400710 <_init+0x18>

0000000000400790 <__cilkrts_ivar_write@plt>:
  400790:	ff 25 72 0b 20 00    	jmpq   *0x200b72(%rip)        # 601308 <_GLOBAL_OFFSET_TABLE_+0x50>
  400796:	68 07 00 00 00       	pushq  $0x7
  40079b:	e9 70 ff ff ff       	jmpq   400710 <_init+0x18>

Disassembly of section .text:

00000000004007a0 <_start>:
  4007a0:	31 ed                	xor    %ebp,%ebp
  4007a2:	49 89 d1             	mov    %rdx,%r9
  4007a5:	5e                   	pop    %rsi
  4007a6:	48 89 e2             	mov    %rsp,%rdx
  4007a9:	48 83 e4 f0          	and    $0xfffffffffffffff0,%rsp
  4007ad:	50                   	push   %rax
  4007ae:	54                   	push   %rsp
  4007af:	49 c7 c0 c0 0b 40 00 	mov    $0x400bc0,%r8
  4007b6:	48 c7 c1 d0 0b 40 00 	mov    $0x400bd0,%rcx
  4007bd:	48 c7 c7 d0 09 40 00 	mov    $0x4009d0,%rdi
  4007c4:	e8 a7 ff ff ff       	callq  400770 <__libc_start_main@plt>
  4007c9:	f4                   	hlt    
  4007ca:	90                   	nop
  4007cb:	90                   	nop

00000000004007cc <call_gmon_start>:
  4007cc:	48 83 ec 08          	sub    $0x8,%rsp
  4007d0:	48 8b 05 d9 0a 20 00 	mov    0x200ad9(%rip),%rax        # 6012b0 <_DYNAMIC+0x1a0>
  4007d7:	48 85 c0             	test   %rax,%rax
  4007da:	74 02                	je     4007de <call_gmon_start+0x12>
  4007dc:	ff d0                	callq  *%rax
  4007de:	48 83 c4 08          	add    $0x8,%rsp
  4007e2:	c3                   	retq   
  4007e3:	90                   	nop
  4007e4:	90                   	nop
  4007e5:	90                   	nop
  4007e6:	90                   	nop
  4007e7:	90                   	nop
  4007e8:	90                   	nop
  4007e9:	90                   	nop
  4007ea:	90                   	nop
  4007eb:	90                   	nop
  4007ec:	90                   	nop
  4007ed:	90                   	nop
  4007ee:	90                   	nop
  4007ef:	90                   	nop

00000000004007f0 <deregister_tm_clones>:
  4007f0:	b8 27 13 60 00       	mov    $0x601327,%eax
  4007f5:	55                   	push   %rbp
  4007f6:	48 2d 20 13 60 00    	sub    $0x601320,%rax
  4007fc:	48 83 f8 0e          	cmp    $0xe,%rax
  400800:	48 89 e5             	mov    %rsp,%rbp
  400803:	77 02                	ja     400807 <deregister_tm_clones+0x17>
  400805:	5d                   	pop    %rbp
  400806:	c3                   	retq   
  400807:	b8 00 00 00 00       	mov    $0x0,%eax
  40080c:	48 85 c0             	test   %rax,%rax
  40080f:	74 f4                	je     400805 <deregister_tm_clones+0x15>
  400811:	5d                   	pop    %rbp
  400812:	bf 20 13 60 00       	mov    $0x601320,%edi
  400817:	ff e0                	jmpq   *%rax
  400819:	0f 1f 80 00 00 00 00 	nopl   0x0(%rax)

0000000000400820 <register_tm_clones>:
  400820:	b8 20 13 60 00       	mov    $0x601320,%eax
  400825:	55                   	push   %rbp
  400826:	48 2d 20 13 60 00    	sub    $0x601320,%rax
  40082c:	48 c1 f8 03          	sar    $0x3,%rax
  400830:	48 89 e5             	mov    %rsp,%rbp
  400833:	48 89 c2             	mov    %rax,%rdx
  400836:	48 c1 ea 3f          	shr    $0x3f,%rdx
  40083a:	48 01 d0             	add    %rdx,%rax
  40083d:	48 89 c6             	mov    %rax,%rsi
  400840:	48 d1 fe             	sar    %rsi
  400843:	75 02                	jne    400847 <register_tm_clones+0x27>
  400845:	5d                   	pop    %rbp
  400846:	c3                   	retq   
  400847:	ba 00 00 00 00       	mov    $0x0,%edx
  40084c:	48 85 d2             	test   %rdx,%rdx
  40084f:	74 f4                	je     400845 <register_tm_clones+0x25>
  400851:	5d                   	pop    %rbp
  400852:	bf 20 13 60 00       	mov    $0x601320,%edi
  400857:	ff e2                	jmpq   *%rdx
  400859:	0f 1f 80 00 00 00 00 	nopl   0x0(%rax)

0000000000400860 <__do_global_dtors_aux>:
  400860:	80 3d b9 0a 20 00 00 	cmpb   $0x0,0x200ab9(%rip)        # 601320 <__bss_start>
  400867:	75 5f                	jne    4008c8 <__do_global_dtors_aux+0x68>
  400869:	55                   	push   %rbp
  40086a:	48 89 e5             	mov    %rsp,%rbp
  40086d:	53                   	push   %rbx
  40086e:	bb 00 11 60 00       	mov    $0x601100,%ebx
  400873:	48 81 eb f8 10 60 00 	sub    $0x6010f8,%rbx
  40087a:	48 83 ec 08          	sub    $0x8,%rsp
  40087e:	48 8b 05 a3 0a 20 00 	mov    0x200aa3(%rip),%rax        # 601328 <dtor_idx.6143>
  400885:	48 c1 fb 03          	sar    $0x3,%rbx
  400889:	48 83 eb 01          	sub    $0x1,%rbx
  40088d:	48 39 d8             	cmp    %rbx,%rax
  400890:	73 24                	jae    4008b6 <__do_global_dtors_aux+0x56>
  400892:	66 0f 1f 44 00 00    	nopw   0x0(%rax,%rax,1)
  400898:	48 83 c0 01          	add    $0x1,%rax
  40089c:	48 89 05 85 0a 20 00 	mov    %rax,0x200a85(%rip)        # 601328 <dtor_idx.6143>
  4008a3:	ff 14 c5 f8 10 60 00 	callq  *0x6010f8(,%rax,8)
  4008aa:	48 8b 05 77 0a 20 00 	mov    0x200a77(%rip),%rax        # 601328 <dtor_idx.6143>
  4008b1:	48 39 d8             	cmp    %rbx,%rax
  4008b4:	72 e2                	jb     400898 <__do_global_dtors_aux+0x38>
  4008b6:	e8 35 ff ff ff       	callq  4007f0 <deregister_tm_clones>
  4008bb:	c6 05 5e 0a 20 00 01 	movb   $0x1,0x200a5e(%rip)        # 601320 <__bss_start>
  4008c2:	48 83 c4 08          	add    $0x8,%rsp
  4008c6:	5b                   	pop    %rbx
  4008c7:	5d                   	pop    %rbp
  4008c8:	c3                   	retq   
  4008c9:	0f 1f 80 00 00 00 00 	nopl   0x0(%rax)

00000000004008d0 <frame_dummy>:
  4008d0:	48 83 3d 30 08 20 00 	cmpq   $0x0,0x200830(%rip)        # 601108 <__JCR_END__>
  4008d7:	00 
  4008d8:	74 1b                	je     4008f5 <frame_dummy+0x25>
  4008da:	b8 00 00 00 00       	mov    $0x0,%eax
  4008df:	48 85 c0             	test   %rax,%rax
  4008e2:	74 11                	je     4008f5 <frame_dummy+0x25>
  4008e4:	55                   	push   %rbp
  4008e5:	bf 08 11 60 00       	mov    $0x601108,%edi
  4008ea:	48 89 e5             	mov    %rsp,%rbp
  4008ed:	ff d0                	callq  *%rax
  4008ef:	5d                   	pop    %rbp
  4008f0:	e9 2b ff ff ff       	jmpq   400820 <register_tm_clones>
  4008f5:	e9 26 ff ff ff       	jmpq   400820 <register_tm_clones>
  4008fa:	90                   	nop
  4008fb:	90                   	nop
  4008fc:	90                   	nop
  4008fd:	90                   	nop
  4008fe:	90                   	nop
  4008ff:	90                   	nop

0000000000400900 <reader>:
  400900:	53                   	push   %rbx
  400901:	48 89 fe             	mov    %rdi,%rsi
  400904:	48 89 fb             	mov    %rdi,%rbx
  400907:	31 c0                	xor    %eax,%eax
  400909:	bf ac 0c 40 00       	mov    $0x400cac,%edi
  40090e:	e8 2d fe ff ff       	callq  400740 <printf@plt>
  400913:	48 89 df             	mov    %rbx,%rdi
  400916:	e8 65 fe ff ff       	callq  400780 <__cilkrts_ivar_read@plt>
  40091b:	5b                   	pop    %rbx
  40091c:	c3                   	retq   
  40091d:	0f 1f 00             	nopl   (%rax)

0000000000400920 <writer>:
  400920:	53                   	push   %rbx
  400921:	48 89 fe             	mov    %rdi,%rsi
  400924:	48 89 fb             	mov    %rdi,%rbx
  400927:	31 c0                	xor    %eax,%eax
  400929:	bf c5 0c 40 00       	mov    $0x400cc5,%edi
  40092e:	e8 0d fe ff ff       	callq  400740 <printf@plt>
  400933:	48 89 df             	mov    %rbx,%rdi
  400936:	be 05 00 00 00       	mov    $0x5,%esi
  40093b:	5b                   	pop    %rbx
  40093c:	e9 4f fe ff ff       	jmpq   400790 <__cilkrts_ivar_write@plt>
  400941:	66 66 66 66 66 66 2e 	data32 data32 data32 data32 data32 nopw %cs:0x0(%rax,%rax,1)
  400948:	0f 1f 84 00 00 00 00 
  40094f:	00 

0000000000400950 <__cilk_spawn_001>:
  400950:	55                   	push   %rbp
  400951:	48 89 e5             	mov    %rsp,%rbp
  400954:	53                   	push   %rbx
  400955:	48 83 ec 58          	sub    $0x58,%rsp
  400959:	48 89 fb             	mov    %rdi,%rbx
  40095c:	48 8d 7d a0          	lea    -0x60(%rbp),%rdi
  400960:	48 8d 7d a0          	lea    -0x60(%rbp),%rdi
  400964:	e8 e7 fd ff ff       	callq  400750 <__cilkrts_enter_frame@plt>
  400969:	48 8d 7d a0          	lea    -0x60(%rbp),%rdi
  40096d:	48 8d 7d a0          	lea    -0x60(%rbp),%rdi
  400971:	48 8b 55 b0          	mov    -0x50(%rbp),%rdx
  400975:	48 8b 02             	mov    (%rdx),%rax
  400978:	48 8b 4d a8          	mov    -0x58(%rbp),%rcx
  40097c:	48 89 08             	mov    %rcx,(%rax)
  40097f:	48 83 c0 08          	add    $0x8,%rax
  400983:	48 89 02             	mov    %rax,(%rdx)
  400986:	83 4d a0 04          	orl    $0x4,-0x60(%rbp)
  40098a:	48 89 df             	mov    %rbx,%rdi
  40098d:	e8 8e ff ff ff       	callq  400920 <writer>
  400992:	48 8b 55 a8          	mov    -0x58(%rbp),%rdx
  400996:	48 8b 45 b0          	mov    -0x50(%rbp),%rax
  40099a:	48 89 50 48          	mov    %rdx,0x48(%rax)
  40099e:	48 c7 45 a8 00 00 00 	movq   $0x0,-0x58(%rbp)
  4009a5:	00 
  4009a6:	48 8d 7d a0          	lea    -0x60(%rbp),%rdi
  4009aa:	8b 45 a0             	mov    -0x60(%rbp),%eax
  4009ad:	85 c0                	test   %eax,%eax
  4009af:	75 07                	jne    4009b8 <__cilk_spawn_001+0x68>
  4009b1:	48 83 c4 58          	add    $0x58,%rsp
  4009b5:	5b                   	pop    %rbx
  4009b6:	5d                   	pop    %rbp
  4009b7:	c3                   	retq   
  4009b8:	48 8d 7d a0          	lea    -0x60(%rbp),%rdi
  4009bc:	e8 6f fd ff ff       	callq  400730 <__cilkrts_leave_frame@plt>
  4009c1:	eb ee                	jmp    4009b1 <__cilk_spawn_001+0x61>
  4009c3:	90                   	nop
  4009c4:	90                   	nop
  4009c5:	90                   	nop
  4009c6:	90                   	nop
  4009c7:	90                   	nop
  4009c8:	90                   	nop
  4009c9:	90                   	nop
  4009ca:	90                   	nop
  4009cb:	90                   	nop
  4009cc:	90                   	nop
  4009cd:	90                   	nop
  4009ce:	90                   	nop
  4009cf:	90                   	nop

00000000004009d0 <main>:
  4009d0:	55                   	push   %rbp
  4009d1:	48 89 e5             	mov    %rsp,%rbp
  4009d4:	41 57                	push   %r15
  4009d6:	41 56                	push   %r14
  4009d8:	41 55                	push   %r13
  4009da:	41 54                	push   %r12
  4009dc:	53                   	push   %rbx
  4009dd:	48 83 ec 78          	sub    $0x78,%rsp
  4009e1:	48 8d 45 80          	lea    -0x80(%rbp),%rax
  4009e5:	48 89 85 68 ff ff ff 	mov    %rax,-0x98(%rbp)
  4009ec:	48 89 c7             	mov    %rax,%rdi
  4009ef:	48 8b bd 68 ff ff ff 	mov    -0x98(%rbp),%rdi
  4009f6:	e8 55 fd ff ff       	callq  400750 <__cilkrts_enter_frame@plt>
  4009fb:	48 8b bd 68 ff ff ff 	mov    -0x98(%rbp),%rdi
  400a02:	48 8d bd 70 ff ff ff 	lea    -0x90(%rbp),%rdi
  400a09:	e8 52 fd ff ff       	callq  400760 <__cilkrts_ivar_clear@plt>
  400a0e:	48 8d bd 70 ff ff ff 	lea    -0x90(%rbp),%rdi
  400a15:	e8 e6 fe ff ff       	callq  400900 <reader>
  400a1a:	89 85 64 ff ff ff    	mov    %eax,-0x9c(%rbp)
  400a20:	48 8b 85 68 ff ff ff 	mov    -0x98(%rbp),%rax
  400a27:	48 8d 55 d0          	lea    -0x30(%rbp),%rdx
  400a2b:	48 89 55 a0          	mov    %rdx,-0x60(%rbp)
  400a2f:	48 c7 40 28 51 0b 40 	movq   $0x400b51,0x28(%rax)
  400a36:	00 
  400a37:	48 89 60 30          	mov    %rsp,0x30(%rax)
  400a3b:	e9 20 01 00 00       	jmpq   400b60 <main+0x190>
  400a40:	48 83 c5 30          	add    $0x30,%rbp
  400a44:	48 8d 45 80          	lea    -0x80(%rbp),%rax
  400a48:	48 89 85 68 ff ff ff 	mov    %rax,-0x98(%rbp)
  400a4f:	48 8b bd 68 ff ff ff 	mov    -0x98(%rbp),%rdi
  400a56:	48 8b 55 88          	mov    -0x78(%rbp),%rdx
  400a5a:	48 8b 45 90          	mov    -0x70(%rbp),%rax
  400a5e:	48 89 50 48          	mov    %rdx,0x48(%rax)
  400a62:	48 c7 45 88 00 00 00 	movq   $0x0,-0x78(%rbp)
  400a69:	00 
  400a6a:	48 8b bd 68 ff ff ff 	mov    -0x98(%rbp),%rdi
  400a71:	83 7d 80 00          	cmpl   $0x0,-0x80(%rbp)
  400a75:	0f 85 27 01 00 00    	jne    400ba2 <main+0x1d2>
  400a7b:	31 c0                	xor    %eax,%eax
  400a7d:	48 83 c4 78          	add    $0x78,%rsp
  400a81:	5b                   	pop    %rbx
  400a82:	41 5c                	pop    %r12
  400a84:	41 5d                	pop    %r13
  400a86:	41 5e                	pop    %r14
  400a88:	41 5f                	pop    %r15
  400a8a:	5d                   	pop    %rbp
  400a8b:	c3                   	retq   
  400a8c:	48 83 c5 30          	add    $0x30,%rbp
  400a90:	c7 85 68 ff ff ff 01 	movl   $0x1,-0x98(%rbp)
  400a97:	00 00 00 
  400a9a:	8b bd 68 ff ff ff    	mov    -0x98(%rbp),%edi
  400aa0:	31 c0                	xor    %eax,%eax
  400aa2:	83 bd 68 ff ff ff 00 	cmpl   $0x0,-0x98(%rbp)
  400aa9:	0f 84 e2 00 00 00    	je     400b91 <main+0x1c1>
  400aaf:	48 8d 45 80          	lea    -0x80(%rbp),%rax
  400ab3:	48 89 85 68 ff ff ff 	mov    %rax,-0x98(%rbp)
  400aba:	48 89 c7             	mov    %rax,%rdi
  400abd:	f6 45 80 02          	testb  $0x2,-0x80(%rbp)
  400ac1:	74 38                	je     400afb <main+0x12b>
  400ac3:	48 8b 85 68 ff ff ff 	mov    -0x98(%rbp),%rax
  400aca:	48 8d 55 d0          	lea    -0x30(%rbp),%rdx
  400ace:	48 89 55 a0          	mov    %rdx,-0x60(%rbp)
  400ad2:	48 c7 40 28 ec 0a 40 	movq   $0x400aec,0x28(%rax)
  400ad9:	00 
  400ada:	48 89 60 30          	mov    %rsp,0x30(%rax)
  400ade:	48 8b bd 68 ff ff ff 	mov    -0x98(%rbp),%rdi
  400ae5:	e8 36 fc ff ff       	callq  400720 <__cilkrts_sync@plt>
  400aea:	eb 0f                	jmp    400afb <main+0x12b>
  400aec:	48 83 c5 30          	add    $0x30,%rbp
  400af0:	48 8d 45 80          	lea    -0x80(%rbp),%rax
  400af4:	48 89 85 68 ff ff ff 	mov    %rax,-0x98(%rbp)
  400afb:	48 8b bd 68 ff ff ff 	mov    -0x98(%rbp),%rdi
  400b02:	8b b5 64 ff ff ff    	mov    -0x9c(%rbp),%esi
  400b08:	bf de 0c 40 00       	mov    $0x400cde,%edi
  400b0d:	31 c0                	xor    %eax,%eax
  400b0f:	e8 2c fc ff ff       	callq  400740 <printf@plt>
  400b14:	48 8b bd 68 ff ff ff 	mov    -0x98(%rbp),%rdi
  400b1b:	f6 45 80 02          	testb  $0x2,-0x80(%rbp)
  400b1f:	0f 84 2a ff ff ff    	je     400a4f <main+0x7f>
  400b25:	48 8b 85 68 ff ff ff 	mov    -0x98(%rbp),%rax
  400b2c:	48 8d 55 d0          	lea    -0x30(%rbp),%rdx
  400b30:	48 89 55 a0          	mov    %rdx,-0x60(%rbp)
  400b34:	48 c7 40 28 40 0a 40 	movq   $0x400a40,0x28(%rax)
  400b3b:	00 
  400b3c:	48 89 60 30          	mov    %rsp,0x30(%rax)
  400b40:	48 8b bd 68 ff ff ff 	mov    -0x98(%rbp),%rdi
  400b47:	e8 d4 fb ff ff       	callq  400720 <__cilkrts_sync@plt>
  400b4c:	e9 fe fe ff ff       	jmpq   400a4f <main+0x7f>
  400b51:	48 83 c5 30          	add    $0x30,%rbp
  400b55:	48 8d 45 80          	lea    -0x80(%rbp),%rax
  400b59:	48 89 85 68 ff ff ff 	mov    %rax,-0x98(%rbp)
  400b60:	48 8b bd 68 ff ff ff 	mov    -0x98(%rbp),%rdi
  400b67:	48 8b 85 68 ff ff ff 	mov    -0x98(%rbp),%rax
  400b6e:	48 8d 55 d0          	lea    -0x30(%rbp),%rdx
  400b72:	48 89 55 a0          	mov    %rdx,-0x60(%rbp)
  400b76:	48 c7 40 28 8c 0a 40 	movq   $0x400a8c,0x28(%rax)
  400b7d:	00 
  400b7e:	48 89 60 30          	mov    %rsp,0x30(%rax)
  400b82:	c7 85 68 ff ff ff 00 	movl   $0x0,-0x98(%rbp)
  400b89:	00 00 00 
  400b8c:	e9 09 ff ff ff       	jmpq   400a9a <main+0xca>
  400b91:	48 8d bd 70 ff ff ff 	lea    -0x90(%rbp),%rdi
  400b98:	e8 b3 fd ff ff       	callq  400950 <__cilk_spawn_001>
  400b9d:	e9 0d ff ff ff       	jmpq   400aaf <main+0xdf>
  400ba2:	48 8b bd 68 ff ff ff 	mov    -0x98(%rbp),%rdi
  400ba9:	e8 82 fb ff ff       	callq  400730 <__cilkrts_leave_frame@plt>
  400bae:	e9 c8 fe ff ff       	jmpq   400a7b <main+0xab>
  400bb3:	90                   	nop
  400bb4:	90                   	nop
  400bb5:	90                   	nop
  400bb6:	90                   	nop
  400bb7:	90                   	nop
  400bb8:	90                   	nop
  400bb9:	90                   	nop
  400bba:	90                   	nop
  400bbb:	90                   	nop
  400bbc:	90                   	nop
  400bbd:	90                   	nop
  400bbe:	90                   	nop
  400bbf:	90                   	nop

0000000000400bc0 <__libc_csu_fini>:
  400bc0:	f3 c3                	repz retq 
  400bc2:	66 66 66 66 66 2e 0f 	data32 data32 data32 data32 nopw %cs:0x0(%rax,%rax,1)
  400bc9:	1f 84 00 00 00 00 00 

0000000000400bd0 <__libc_csu_init>:
  400bd0:	48 89 6c 24 d8       	mov    %rbp,-0x28(%rsp)
  400bd5:	4c 89 64 24 e0       	mov    %r12,-0x20(%rsp)
  400bda:	48 8d 2d 03 05 20 00 	lea    0x200503(%rip),%rbp        # 6010e4 <__init_array_end>
  400be1:	4c 8d 25 fc 04 20 00 	lea    0x2004fc(%rip),%r12        # 6010e4 <__init_array_end>
  400be8:	4c 89 6c 24 e8       	mov    %r13,-0x18(%rsp)
  400bed:	4c 89 74 24 f0       	mov    %r14,-0x10(%rsp)
  400bf2:	4c 89 7c 24 f8       	mov    %r15,-0x8(%rsp)
  400bf7:	48 89 5c 24 d0       	mov    %rbx,-0x30(%rsp)
  400bfc:	48 83 ec 38          	sub    $0x38,%rsp
  400c00:	4c 29 e5             	sub    %r12,%rbp
  400c03:	41 89 fd             	mov    %edi,%r13d
  400c06:	49 89 f6             	mov    %rsi,%r14
  400c09:	48 c1 fd 03          	sar    $0x3,%rbp
  400c0d:	49 89 d7             	mov    %rdx,%r15
  400c10:	e8 e3 fa ff ff       	callq  4006f8 <_init>
  400c15:	48 85 ed             	test   %rbp,%rbp
  400c18:	74 1c                	je     400c36 <__libc_csu_init+0x66>
  400c1a:	31 db                	xor    %ebx,%ebx
  400c1c:	0f 1f 40 00          	nopl   0x0(%rax)
  400c20:	4c 89 fa             	mov    %r15,%rdx
  400c23:	4c 89 f6             	mov    %r14,%rsi
  400c26:	44 89 ef             	mov    %r13d,%edi
  400c29:	41 ff 14 dc          	callq  *(%r12,%rbx,8)
  400c2d:	48 83 c3 01          	add    $0x1,%rbx
  400c31:	48 39 eb             	cmp    %rbp,%rbx
  400c34:	72 ea                	jb     400c20 <__libc_csu_init+0x50>
  400c36:	48 8b 5c 24 08       	mov    0x8(%rsp),%rbx
  400c3b:	48 8b 6c 24 10       	mov    0x10(%rsp),%rbp
  400c40:	4c 8b 64 24 18       	mov    0x18(%rsp),%r12
  400c45:	4c 8b 6c 24 20       	mov    0x20(%rsp),%r13
  400c4a:	4c 8b 74 24 28       	mov    0x28(%rsp),%r14
  400c4f:	4c 8b 7c 24 30       	mov    0x30(%rsp),%r15
  400c54:	48 83 c4 38          	add    $0x38,%rsp
  400c58:	c3                   	retq   
  400c59:	90                   	nop
  400c5a:	90                   	nop
  400c5b:	90                   	nop
  400c5c:	90                   	nop
  400c5d:	90                   	nop
  400c5e:	90                   	nop
  400c5f:	90                   	nop

0000000000400c60 <__do_global_ctors_aux>:
  400c60:	55                   	push   %rbp
  400c61:	48 89 e5             	mov    %rsp,%rbp
  400c64:	53                   	push   %rbx
  400c65:	bb e8 10 60 00       	mov    $0x6010e8,%ebx
  400c6a:	48 83 ec 08          	sub    $0x8,%rsp
  400c6e:	48 8b 05 73 04 20 00 	mov    0x200473(%rip),%rax        # 6010e8 <__CTOR_LIST__>
  400c75:	48 83 f8 ff          	cmp    $0xffffffffffffffff,%rax
  400c79:	74 14                	je     400c8f <__do_global_ctors_aux+0x2f>
  400c7b:	0f 1f 44 00 00       	nopl   0x0(%rax,%rax,1)
  400c80:	48 83 eb 08          	sub    $0x8,%rbx
  400c84:	ff d0                	callq  *%rax
  400c86:	48 8b 03             	mov    (%rbx),%rax
  400c89:	48 83 f8 ff          	cmp    $0xffffffffffffffff,%rax
  400c8d:	75 f1                	jne    400c80 <__do_global_ctors_aux+0x20>
  400c8f:	48 83 c4 08          	add    $0x8,%rsp
  400c93:	5b                   	pop    %rbx
  400c94:	5d                   	pop    %rbp
  400c95:	c3                   	retq   
  400c96:	90                   	nop
  400c97:	90                   	nop

Disassembly of section .fini:

0000000000400c98 <_fini>:
  400c98:	48 83 ec 08          	sub    $0x8,%rsp
  400c9c:	e8 bf fb ff ff       	callq  400860 <__do_global_dtors_aux>
  400ca1:	48 83 c4 08          	add    $0x8,%rsp
  400ca5:	c3                   	retq   
