
stdcilk.exe:     file format elf64-x86-64


Disassembly of section .init:

0000000000400600 <_init>:
  400600:	48 83 ec 08          	sub    $0x8,%rsp
  400604:	e8 a3 00 00 00       	callq  4006ac <call_gmon_start>
  400609:	e8 a2 01 00 00       	callq  4007b0 <frame_dummy>
  40060e:	e8 cd 05 00 00       	callq  400be0 <__do_global_ctors_aux>
  400613:	48 83 c4 08          	add    $0x8,%rsp
  400617:	c3                   	retq   

Disassembly of section .plt:

0000000000400618 <__cilkrts_sync@plt-0x10>:
  400618:	ff 35 7a 0d 20 00    	pushq  0x200d7a(%rip)        # 601398 <_GLOBAL_OFFSET_TABLE_+0x8>
  40061e:	ff 25 7c 0d 20 00    	jmpq   *0x200d7c(%rip)        # 6013a0 <_GLOBAL_OFFSET_TABLE_+0x10>
  400624:	0f 1f 40 00          	nopl   0x0(%rax)

0000000000400628 <__cilkrts_sync@plt>:
  400628:	ff 25 7a 0d 20 00    	jmpq   *0x200d7a(%rip)        # 6013a8 <_GLOBAL_OFFSET_TABLE_+0x18>
  40062e:	68 00 00 00 00       	pushq  $0x0
  400633:	e9 e0 ff ff ff       	jmpq   400618 <_init+0x18>

0000000000400638 <__cilkrts_leave_frame@plt>:
  400638:	ff 25 72 0d 20 00    	jmpq   *0x200d72(%rip)        # 6013b0 <_GLOBAL_OFFSET_TABLE_+0x20>
  40063e:	68 01 00 00 00       	pushq  $0x1
  400643:	e9 d0 ff ff ff       	jmpq   400618 <_init+0x18>

0000000000400648 <printf@plt>:
  400648:	ff 25 6a 0d 20 00    	jmpq   *0x200d6a(%rip)        # 6013b8 <_GLOBAL_OFFSET_TABLE_+0x28>
  40064e:	68 02 00 00 00       	pushq  $0x2
  400653:	e9 c0 ff ff ff       	jmpq   400618 <_init+0x18>

0000000000400658 <__cilkrts_enter_frame@plt>:
  400658:	ff 25 62 0d 20 00    	jmpq   *0x200d62(%rip)        # 6013c0 <_GLOBAL_OFFSET_TABLE_+0x30>
  40065e:	68 03 00 00 00       	pushq  $0x3
  400663:	e9 b0 ff ff ff       	jmpq   400618 <_init+0x18>

0000000000400668 <__libc_start_main@plt>:
  400668:	ff 25 5a 0d 20 00    	jmpq   *0x200d5a(%rip)        # 6013c8 <_GLOBAL_OFFSET_TABLE_+0x38>
  40066e:	68 04 00 00 00       	pushq  $0x4
  400673:	e9 a0 ff ff ff       	jmpq   400618 <_init+0x18>

Disassembly of section .text:

0000000000400680 <_start>:
  400680:	31 ed                	xor    %ebp,%ebp
  400682:	49 89 d1             	mov    %rdx,%r9
  400685:	5e                   	pop    %rsi
  400686:	48 89 e2             	mov    %rsp,%rdx
  400689:	48 83 e4 f0          	and    $0xfffffffffffffff0,%rsp
  40068d:	50                   	push   %rax
  40068e:	54                   	push   %rsp
  40068f:	49 c7 c0 40 0b 40 00 	mov    $0x400b40,%r8
  400696:	48 c7 c1 50 0b 40 00 	mov    $0x400b50,%rcx
  40069d:	48 c7 c7 e0 08 40 00 	mov    $0x4008e0,%rdi
  4006a4:	e8 bf ff ff ff       	callq  400668 <__libc_start_main@plt>
  4006a9:	f4                   	hlt    
  4006aa:	90                   	nop
  4006ab:	90                   	nop

00000000004006ac <call_gmon_start>:
  4006ac:	48 83 ec 08          	sub    $0x8,%rsp
  4006b0:	48 8b 05 d1 0c 20 00 	mov    0x200cd1(%rip),%rax        # 601388 <_DYNAMIC+0x1a0>
  4006b7:	48 85 c0             	test   %rax,%rax
  4006ba:	74 02                	je     4006be <call_gmon_start+0x12>
  4006bc:	ff d0                	callq  *%rax
  4006be:	48 83 c4 08          	add    $0x8,%rsp
  4006c2:	c3                   	retq   
  4006c3:	90                   	nop
  4006c4:	90                   	nop
  4006c5:	90                   	nop
  4006c6:	90                   	nop
  4006c7:	90                   	nop
  4006c8:	90                   	nop
  4006c9:	90                   	nop
  4006ca:	90                   	nop
  4006cb:	90                   	nop
  4006cc:	90                   	nop
  4006cd:	90                   	nop
  4006ce:	90                   	nop
  4006cf:	90                   	nop

00000000004006d0 <deregister_tm_clones>:
  4006d0:	b8 e7 13 60 00       	mov    $0x6013e7,%eax
  4006d5:	55                   	push   %rbp
  4006d6:	48 2d e0 13 60 00    	sub    $0x6013e0,%rax
  4006dc:	48 83 f8 0e          	cmp    $0xe,%rax
  4006e0:	48 89 e5             	mov    %rsp,%rbp
  4006e3:	77 02                	ja     4006e7 <deregister_tm_clones+0x17>
  4006e5:	5d                   	pop    %rbp
  4006e6:	c3                   	retq   
  4006e7:	b8 00 00 00 00       	mov    $0x0,%eax
  4006ec:	48 85 c0             	test   %rax,%rax
  4006ef:	74 f4                	je     4006e5 <deregister_tm_clones+0x15>
  4006f1:	5d                   	pop    %rbp
  4006f2:	bf e0 13 60 00       	mov    $0x6013e0,%edi
  4006f7:	ff e0                	jmpq   *%rax
  4006f9:	0f 1f 80 00 00 00 00 	nopl   0x0(%rax)

0000000000400700 <register_tm_clones>:
  400700:	b8 e0 13 60 00       	mov    $0x6013e0,%eax
  400705:	55                   	push   %rbp
  400706:	48 2d e0 13 60 00    	sub    $0x6013e0,%rax
  40070c:	48 c1 f8 03          	sar    $0x3,%rax
  400710:	48 89 e5             	mov    %rsp,%rbp
  400713:	48 89 c2             	mov    %rax,%rdx
  400716:	48 c1 ea 3f          	shr    $0x3f,%rdx
  40071a:	48 01 d0             	add    %rdx,%rax
  40071d:	48 89 c6             	mov    %rax,%rsi
  400720:	48 d1 fe             	sar    %rsi
  400723:	75 02                	jne    400727 <register_tm_clones+0x27>
  400725:	5d                   	pop    %rbp
  400726:	c3                   	retq   
  400727:	ba 00 00 00 00       	mov    $0x0,%edx
  40072c:	48 85 d2             	test   %rdx,%rdx
  40072f:	74 f4                	je     400725 <register_tm_clones+0x25>
  400731:	5d                   	pop    %rbp
  400732:	bf e0 13 60 00       	mov    $0x6013e0,%edi
  400737:	ff e2                	jmpq   *%rdx
  400739:	0f 1f 80 00 00 00 00 	nopl   0x0(%rax)

0000000000400740 <__do_global_dtors_aux>:
  400740:	80 3d 99 0c 20 00 00 	cmpb   $0x0,0x200c99(%rip)        # 6013e0 <__bss_start>
  400747:	75 5f                	jne    4007a8 <__do_global_dtors_aux+0x68>
  400749:	55                   	push   %rbp
  40074a:	48 89 e5             	mov    %rsp,%rbp
  40074d:	53                   	push   %rbx
  40074e:	bb d8 11 60 00       	mov    $0x6011d8,%ebx
  400753:	48 81 eb d0 11 60 00 	sub    $0x6011d0,%rbx
  40075a:	48 83 ec 08          	sub    $0x8,%rsp
  40075e:	48 8b 05 83 0c 20 00 	mov    0x200c83(%rip),%rax        # 6013e8 <dtor_idx.6143>
  400765:	48 c1 fb 03          	sar    $0x3,%rbx
  400769:	48 83 eb 01          	sub    $0x1,%rbx
  40076d:	48 39 d8             	cmp    %rbx,%rax
  400770:	73 24                	jae    400796 <__do_global_dtors_aux+0x56>
  400772:	66 0f 1f 44 00 00    	nopw   0x0(%rax,%rax,1)
  400778:	48 83 c0 01          	add    $0x1,%rax
  40077c:	48 89 05 65 0c 20 00 	mov    %rax,0x200c65(%rip)        # 6013e8 <dtor_idx.6143>
  400783:	ff 14 c5 d0 11 60 00 	callq  *0x6011d0(,%rax,8)
  40078a:	48 8b 05 57 0c 20 00 	mov    0x200c57(%rip),%rax        # 6013e8 <dtor_idx.6143>
  400791:	48 39 d8             	cmp    %rbx,%rax
  400794:	72 e2                	jb     400778 <__do_global_dtors_aux+0x38>
  400796:	e8 35 ff ff ff       	callq  4006d0 <deregister_tm_clones>
  40079b:	c6 05 3e 0c 20 00 01 	movb   $0x1,0x200c3e(%rip)        # 6013e0 <__bss_start>
  4007a2:	48 83 c4 08          	add    $0x8,%rsp
  4007a6:	5b                   	pop    %rbx
  4007a7:	5d                   	pop    %rbp
  4007a8:	c3                   	retq   
  4007a9:	0f 1f 80 00 00 00 00 	nopl   0x0(%rax)

00000000004007b0 <frame_dummy>:
  4007b0:	48 83 3d 28 0a 20 00 	cmpq   $0x0,0x200a28(%rip)        # 6011e0 <__JCR_END__>
  4007b7:	00 
  4007b8:	74 1b                	je     4007d5 <frame_dummy+0x25>
  4007ba:	b8 00 00 00 00       	mov    $0x0,%eax
  4007bf:	48 85 c0             	test   %rax,%rax
  4007c2:	74 11                	je     4007d5 <frame_dummy+0x25>
  4007c4:	55                   	push   %rbp
  4007c5:	bf e0 11 60 00       	mov    $0x6011e0,%edi
  4007ca:	48 89 e5             	mov    %rsp,%rbp
  4007cd:	ff d0                	callq  *%rax
  4007cf:	5d                   	pop    %rbp
  4007d0:	e9 2b ff ff ff       	jmpq   400700 <register_tm_clones>
  4007d5:	e9 26 ff ff ff       	jmpq   400700 <register_tm_clones>
  4007da:	90                   	nop
  4007db:	90                   	nop
  4007dc:	90                   	nop
  4007dd:	90                   	nop
  4007de:	90                   	nop
  4007df:	90                   	nop

00000000004007e0 <__cilk_spawn_001.2189.constprop.0>:
  4007e0:	53                   	push   %rbx
  4007e1:	48 83 ec 50          	sub    $0x50,%rsp
  4007e5:	4c 89 d3             	mov    %r10,%rbx
  4007e8:	48 89 e7             	mov    %rsp,%rdi
  4007eb:	48 89 e7             	mov    %rsp,%rdi
  4007ee:	e8 65 fe ff ff       	callq  400658 <__cilkrts_enter_frame@plt>
  4007f3:	48 89 e7             	mov    %rsp,%rdi
  4007f6:	48 89 e7             	mov    %rsp,%rdi
  4007f9:	48 8b 54 24 10       	mov    0x10(%rsp),%rdx
  4007fe:	48 8b 02             	mov    (%rdx),%rax
  400801:	48 8b 4c 24 08       	mov    0x8(%rsp),%rcx
  400806:	48 89 08             	mov    %rcx,(%rax)
  400809:	48 83 c0 08          	add    $0x8,%rax
  40080d:	48 89 02             	mov    %rax,(%rdx)
  400810:	83 0c 24 04          	orl    $0x4,(%rsp)
  400814:	c7 43 04 19 00 00 00 	movl   $0x19,0x4(%rbx)
  40081b:	48 8b 54 24 08       	mov    0x8(%rsp),%rdx
  400820:	48 8b 44 24 10       	mov    0x10(%rsp),%rax
  400825:	48 89 50 48          	mov    %rdx,0x48(%rax)
  400829:	48 c7 44 24 08 00 00 	movq   $0x0,0x8(%rsp)
  400830:	00 00 
  400832:	48 89 e7             	mov    %rsp,%rdi
  400835:	8b 04 24             	mov    (%rsp),%eax
  400838:	85 c0                	test   %eax,%eax
  40083a:	75 06                	jne    400842 <__cilk_spawn_001.2189.constprop.0+0x62>
  40083c:	48 83 c4 50          	add    $0x50,%rsp
  400840:	5b                   	pop    %rbx
  400841:	c3                   	retq   
  400842:	48 89 e7             	mov    %rsp,%rdi
  400845:	e8 ee fd ff ff       	callq  400638 <__cilkrts_leave_frame@plt>
  40084a:	eb f0                	jmp    40083c <__cilk_spawn_001.2189.constprop.0+0x5c>
  40084c:	0f 1f 40 00          	nopl   0x0(%rax)

0000000000400850 <__cilk_spawn_002.2203.constprop.1>:
  400850:	53                   	push   %rbx
  400851:	48 83 ec 50          	sub    $0x50,%rsp
  400855:	4c 89 d3             	mov    %r10,%rbx
  400858:	48 89 e7             	mov    %rsp,%rdi
  40085b:	48 89 e7             	mov    %rsp,%rdi
  40085e:	e8 f5 fd ff ff       	callq  400658 <__cilkrts_enter_frame@plt>
  400863:	48 89 e7             	mov    %rsp,%rdi
  400866:	48 89 e7             	mov    %rsp,%rdi
  400869:	48 8b 54 24 10       	mov    0x10(%rsp),%rdx
  40086e:	48 8b 02             	mov    (%rdx),%rax
  400871:	48 8b 4c 24 08       	mov    0x8(%rsp),%rcx
  400876:	48 89 08             	mov    %rcx,(%rax)
  400879:	48 83 c0 08          	add    $0x8,%rax
  40087d:	48 89 02             	mov    %rax,(%rdx)
  400880:	83 0c 24 04          	orl    $0x4,(%rsp)
  400884:	c7 03 0a 00 00 00    	movl   $0xa,(%rbx)
  40088a:	48 8b 54 24 08       	mov    0x8(%rsp),%rdx
  40088f:	48 8b 44 24 10       	mov    0x10(%rsp),%rax
  400894:	48 89 50 48          	mov    %rdx,0x48(%rax)
  400898:	48 c7 44 24 08 00 00 	movq   $0x0,0x8(%rsp)
  40089f:	00 00 
  4008a1:	48 89 e7             	mov    %rsp,%rdi
  4008a4:	8b 14 24             	mov    (%rsp),%edx
  4008a7:	85 d2                	test   %edx,%edx
  4008a9:	75 06                	jne    4008b1 <__cilk_spawn_002.2203.constprop.1+0x61>
  4008ab:	48 83 c4 50          	add    $0x50,%rsp
  4008af:	5b                   	pop    %rbx
  4008b0:	c3                   	retq   
  4008b1:	48 89 e7             	mov    %rsp,%rdi
  4008b4:	e8 7f fd ff ff       	callq  400638 <__cilkrts_leave_frame@plt>
  4008b9:	eb f0                	jmp    4008ab <__cilk_spawn_002.2203.constprop.1+0x5b>
  4008bb:	0f 1f 44 00 00       	nopl   0x0(%rax,%rax,1)

00000000004008c0 <foo>:
  4008c0:	89 f8                	mov    %edi,%eax
  4008c2:	0f af c7             	imul   %edi,%eax
  4008c5:	c3                   	retq   
  4008c6:	66 2e 0f 1f 84 00 00 	nopw   %cs:0x0(%rax,%rax,1)
  4008cd:	00 00 00 

00000000004008d0 <bar>:
  4008d0:	8d 04 3f             	lea    (%rdi,%rdi,1),%eax
  4008d3:	c3                   	retq   
  4008d4:	90                   	nop
  4008d5:	90                   	nop
  4008d6:	90                   	nop
  4008d7:	90                   	nop
  4008d8:	90                   	nop
  4008d9:	90                   	nop
  4008da:	90                   	nop
  4008db:	90                   	nop
  4008dc:	90                   	nop
  4008dd:	90                   	nop
  4008de:	90                   	nop
  4008df:	90                   	nop

00000000004008e0 <main>:
  4008e0:	55                   	push   %rbp
  4008e1:	48 89 e5             	mov    %rsp,%rbp
  4008e4:	41 57                	push   %r15
  4008e6:	41 56                	push   %r14
  4008e8:	41 55                	push   %r13
  4008ea:	41 54                	push   %r12
  4008ec:	53                   	push   %rbx
  4008ed:	48 83 ec 78          	sub    $0x78,%rsp
  4008f1:	48 8d 45 80          	lea    -0x80(%rbp),%rax
  4008f5:	48 89 85 68 ff ff ff 	mov    %rax,-0x98(%rbp)
  4008fc:	48 89 c7             	mov    %rax,%rdi
  4008ff:	48 8b bd 68 ff ff ff 	mov    -0x98(%rbp),%rdi
  400906:	e8 4d fd ff ff       	callq  400658 <__cilkrts_enter_frame@plt>
  40090b:	48 8b bd 68 ff ff ff 	mov    -0x98(%rbp),%rdi
  400912:	48 8b 85 68 ff ff ff 	mov    -0x98(%rbp),%rax
  400919:	48 8d 55 d0          	lea    -0x30(%rbp),%rdx
  40091d:	48 89 55 a0          	mov    %rdx,-0x60(%rbp)
  400921:	48 c7 40 28 07 0b 40 	movq   $0x400b07,0x28(%rax)
  400928:	00 
  400929:	48 89 60 30          	mov    %rsp,0x30(%rax)
  40092d:	48 8b bd 68 ff ff ff 	mov    -0x98(%rbp),%rdi
  400934:	48 8b 85 68 ff ff ff 	mov    -0x98(%rbp),%rax
  40093b:	48 8d 55 d0          	lea    -0x30(%rbp),%rdx
  40093f:	48 89 55 a0          	mov    %rdx,-0x60(%rbp)
  400943:	48 c7 40 28 f4 0a 40 	movq   $0x400af4,0x28(%rax)
  40094a:	00 
  40094b:	48 89 60 30          	mov    %rsp,0x30(%rax)
  40094f:	c7 85 68 ff ff ff 00 	movl   $0x0,-0x98(%rbp)
  400956:	00 00 00 
  400959:	8b bd 68 ff ff ff    	mov    -0x98(%rbp),%edi
  40095f:	31 c0                	xor    %eax,%eax
  400961:	83 bd 68 ff ff ff 00 	cmpl   $0x0,-0x98(%rbp)
  400968:	75 0c                	jne    400976 <main+0x96>
  40096a:	4c 8d 95 70 ff ff ff 	lea    -0x90(%rbp),%r10
  400971:	e8 6a fe ff ff       	callq  4007e0 <__cilk_spawn_001.2189.constprop.0>
  400976:	48 8d 45 80          	lea    -0x80(%rbp),%rax
  40097a:	48 89 85 68 ff ff ff 	mov    %rax,-0x98(%rbp)
  400981:	48 8d 55 d0          	lea    -0x30(%rbp),%rdx
  400985:	48 89 55 a0          	mov    %rdx,-0x60(%rbp)
  400989:	48 c7 40 28 b4 0a 40 	movq   $0x400ab4,0x28(%rax)
  400990:	00 
  400991:	48 89 60 30          	mov    %rsp,0x30(%rax)
  400995:	e9 29 01 00 00       	jmpq   400ac3 <main+0x1e3>
  40099a:	48 83 c5 30          	add    $0x30,%rbp
  40099e:	48 8d 45 80          	lea    -0x80(%rbp),%rax
  4009a2:	48 89 85 68 ff ff ff 	mov    %rax,-0x98(%rbp)
  4009a9:	48 8b bd 68 ff ff ff 	mov    -0x98(%rbp),%rdi
  4009b0:	48 8b 55 88          	mov    -0x78(%rbp),%rdx
  4009b4:	48 8b 45 90          	mov    -0x70(%rbp),%rax
  4009b8:	48 89 50 48          	mov    %rdx,0x48(%rax)
  4009bc:	48 c7 45 88 00 00 00 	movq   $0x0,-0x78(%rbp)
  4009c3:	00 
  4009c4:	48 8b bd 68 ff ff ff 	mov    -0x98(%rbp),%rdi
  4009cb:	83 7d 80 00          	cmpl   $0x0,-0x80(%rbp)
  4009cf:	0f 85 57 01 00 00    	jne    400b2c <main+0x24c>
  4009d5:	31 c0                	xor    %eax,%eax
  4009d7:	48 83 c4 78          	add    $0x78,%rsp
  4009db:	5b                   	pop    %rbx
  4009dc:	41 5c                	pop    %r12
  4009de:	41 5d                	pop    %r13
  4009e0:	41 5e                	pop    %r14
  4009e2:	41 5f                	pop    %r15
  4009e4:	5d                   	pop    %rbp
  4009e5:	c3                   	retq   
  4009e6:	48 83 c5 30          	add    $0x30,%rbp
  4009ea:	48 8d 45 80          	lea    -0x80(%rbp),%rax
  4009ee:	48 89 85 68 ff ff ff 	mov    %rax,-0x98(%rbp)
  4009f5:	48 8b bd 68 ff ff ff 	mov    -0x98(%rbp),%rdi
  4009fc:	8b b5 74 ff ff ff    	mov    -0x8c(%rbp),%esi
  400a02:	03 b5 70 ff ff ff    	add    -0x90(%rbp),%esi
  400a08:	bf 2c 0c 40 00       	mov    $0x400c2c,%edi
  400a0d:	31 c0                	xor    %eax,%eax
  400a0f:	e8 34 fc ff ff       	callq  400648 <printf@plt>
  400a14:	48 8b bd 68 ff ff ff 	mov    -0x98(%rbp),%rdi
  400a1b:	f6 45 80 02          	testb  $0x2,-0x80(%rbp)
  400a1f:	74 88                	je     4009a9 <main+0xc9>
  400a21:	48 8b 85 68 ff ff ff 	mov    -0x98(%rbp),%rax
  400a28:	48 8d 55 d0          	lea    -0x30(%rbp),%rdx
  400a2c:	48 89 55 a0          	mov    %rdx,-0x60(%rbp)
  400a30:	48 c7 40 28 9a 09 40 	movq   $0x40099a,0x28(%rax)
  400a37:	00 
  400a38:	48 89 60 30          	mov    %rsp,0x30(%rax)
  400a3c:	48 8b bd 68 ff ff ff 	mov    -0x98(%rbp),%rdi
  400a43:	e8 e0 fb ff ff       	callq  400628 <__cilkrts_sync@plt>
  400a48:	e9 5c ff ff ff       	jmpq   4009a9 <main+0xc9>
  400a4d:	48 83 c5 30          	add    $0x30,%rbp
  400a51:	c7 85 68 ff ff ff 01 	movl   $0x1,-0x98(%rbp)
  400a58:	00 00 00 
  400a5b:	8b bd 68 ff ff ff    	mov    -0x98(%rbp),%edi
  400a61:	31 c0                	xor    %eax,%eax
  400a63:	83 bd 68 ff ff ff 00 	cmpl   $0x0,-0x98(%rbp)
  400a6a:	0f 84 ab 00 00 00    	je     400b1b <main+0x23b>
  400a70:	48 8d 45 80          	lea    -0x80(%rbp),%rax
  400a74:	48 89 85 68 ff ff ff 	mov    %rax,-0x98(%rbp)
  400a7b:	48 89 c7             	mov    %rax,%rdi
  400a7e:	f6 45 80 02          	testb  $0x2,-0x80(%rbp)
  400a82:	0f 84 6d ff ff ff    	je     4009f5 <main+0x115>
  400a88:	48 8b 85 68 ff ff ff 	mov    -0x98(%rbp),%rax
  400a8f:	48 8d 55 d0          	lea    -0x30(%rbp),%rdx
  400a93:	48 89 55 a0          	mov    %rdx,-0x60(%rbp)
  400a97:	48 c7 40 28 e6 09 40 	movq   $0x4009e6,0x28(%rax)
  400a9e:	00 
  400a9f:	48 89 60 30          	mov    %rsp,0x30(%rax)
  400aa3:	48 8b bd 68 ff ff ff 	mov    -0x98(%rbp),%rdi
  400aaa:	e8 79 fb ff ff       	callq  400628 <__cilkrts_sync@plt>
  400aaf:	e9 41 ff ff ff       	jmpq   4009f5 <main+0x115>
  400ab4:	48 83 c5 30          	add    $0x30,%rbp
  400ab8:	48 8d 45 80          	lea    -0x80(%rbp),%rax
  400abc:	48 89 85 68 ff ff ff 	mov    %rax,-0x98(%rbp)
  400ac3:	48 8b bd 68 ff ff ff 	mov    -0x98(%rbp),%rdi
  400aca:	48 8b 85 68 ff ff ff 	mov    -0x98(%rbp),%rax
  400ad1:	48 8d 55 d0          	lea    -0x30(%rbp),%rdx
  400ad5:	48 89 55 a0          	mov    %rdx,-0x60(%rbp)
  400ad9:	48 c7 40 28 4d 0a 40 	movq   $0x400a4d,0x28(%rax)
  400ae0:	00 
  400ae1:	48 89 60 30          	mov    %rsp,0x30(%rax)
  400ae5:	c7 85 68 ff ff ff 00 	movl   $0x0,-0x98(%rbp)
  400aec:	00 00 00 
  400aef:	e9 67 ff ff ff       	jmpq   400a5b <main+0x17b>
  400af4:	48 83 c5 30          	add    $0x30,%rbp
  400af8:	c7 85 68 ff ff ff 01 	movl   $0x1,-0x98(%rbp)
  400aff:	00 00 00 
  400b02:	e9 52 fe ff ff       	jmpq   400959 <main+0x79>
  400b07:	48 83 c5 30          	add    $0x30,%rbp
  400b0b:	48 8d 45 80          	lea    -0x80(%rbp),%rax
  400b0f:	48 89 85 68 ff ff ff 	mov    %rax,-0x98(%rbp)
  400b16:	e9 12 fe ff ff       	jmpq   40092d <main+0x4d>
  400b1b:	4c 8d 95 70 ff ff ff 	lea    -0x90(%rbp),%r10
  400b22:	e8 29 fd ff ff       	callq  400850 <__cilk_spawn_002.2203.constprop.1>
  400b27:	e9 44 ff ff ff       	jmpq   400a70 <main+0x190>
  400b2c:	48 8b bd 68 ff ff ff 	mov    -0x98(%rbp),%rdi
  400b33:	e8 00 fb ff ff       	callq  400638 <__cilkrts_leave_frame@plt>
  400b38:	e9 98 fe ff ff       	jmpq   4009d5 <main+0xf5>
  400b3d:	90                   	nop
  400b3e:	90                   	nop
  400b3f:	90                   	nop

0000000000400b40 <__libc_csu_fini>:
  400b40:	f3 c3                	repz retq 
  400b42:	66 66 66 66 66 2e 0f 	data32 data32 data32 data32 nopw %cs:0x0(%rax,%rax,1)
  400b49:	1f 84 00 00 00 00 00 

0000000000400b50 <__libc_csu_init>:
  400b50:	48 89 6c 24 d8       	mov    %rbp,-0x28(%rsp)
  400b55:	4c 89 64 24 e0       	mov    %r12,-0x20(%rsp)
  400b5a:	48 8d 2d 5b 06 20 00 	lea    0x20065b(%rip),%rbp        # 6011bc <__init_array_end>
  400b61:	4c 8d 25 54 06 20 00 	lea    0x200654(%rip),%r12        # 6011bc <__init_array_end>
  400b68:	4c 89 6c 24 e8       	mov    %r13,-0x18(%rsp)
  400b6d:	4c 89 74 24 f0       	mov    %r14,-0x10(%rsp)
  400b72:	4c 89 7c 24 f8       	mov    %r15,-0x8(%rsp)
  400b77:	48 89 5c 24 d0       	mov    %rbx,-0x30(%rsp)
  400b7c:	48 83 ec 38          	sub    $0x38,%rsp
  400b80:	4c 29 e5             	sub    %r12,%rbp
  400b83:	41 89 fd             	mov    %edi,%r13d
  400b86:	49 89 f6             	mov    %rsi,%r14
  400b89:	48 c1 fd 03          	sar    $0x3,%rbp
  400b8d:	49 89 d7             	mov    %rdx,%r15
  400b90:	e8 6b fa ff ff       	callq  400600 <_init>
  400b95:	48 85 ed             	test   %rbp,%rbp
  400b98:	74 1c                	je     400bb6 <__libc_csu_init+0x66>
  400b9a:	31 db                	xor    %ebx,%ebx
  400b9c:	0f 1f 40 00          	nopl   0x0(%rax)
  400ba0:	4c 89 fa             	mov    %r15,%rdx
  400ba3:	4c 89 f6             	mov    %r14,%rsi
  400ba6:	44 89 ef             	mov    %r13d,%edi
  400ba9:	41 ff 14 dc          	callq  *(%r12,%rbx,8)
  400bad:	48 83 c3 01          	add    $0x1,%rbx
  400bb1:	48 39 eb             	cmp    %rbp,%rbx
  400bb4:	72 ea                	jb     400ba0 <__libc_csu_init+0x50>
  400bb6:	48 8b 5c 24 08       	mov    0x8(%rsp),%rbx
  400bbb:	48 8b 6c 24 10       	mov    0x10(%rsp),%rbp
  400bc0:	4c 8b 64 24 18       	mov    0x18(%rsp),%r12
  400bc5:	4c 8b 6c 24 20       	mov    0x20(%rsp),%r13
  400bca:	4c 8b 74 24 28       	mov    0x28(%rsp),%r14
  400bcf:	4c 8b 7c 24 30       	mov    0x30(%rsp),%r15
  400bd4:	48 83 c4 38          	add    $0x38,%rsp
  400bd8:	c3                   	retq   
  400bd9:	90                   	nop
  400bda:	90                   	nop
  400bdb:	90                   	nop
  400bdc:	90                   	nop
  400bdd:	90                   	nop
  400bde:	90                   	nop
  400bdf:	90                   	nop

0000000000400be0 <__do_global_ctors_aux>:
  400be0:	55                   	push   %rbp
  400be1:	48 89 e5             	mov    %rsp,%rbp
  400be4:	53                   	push   %rbx
  400be5:	bb c0 11 60 00       	mov    $0x6011c0,%ebx
  400bea:	48 83 ec 08          	sub    $0x8,%rsp
  400bee:	48 8b 05 cb 05 20 00 	mov    0x2005cb(%rip),%rax        # 6011c0 <__CTOR_LIST__>
  400bf5:	48 83 f8 ff          	cmp    $0xffffffffffffffff,%rax
  400bf9:	74 14                	je     400c0f <__do_global_ctors_aux+0x2f>
  400bfb:	0f 1f 44 00 00       	nopl   0x0(%rax,%rax,1)
  400c00:	48 83 eb 08          	sub    $0x8,%rbx
  400c04:	ff d0                	callq  *%rax
  400c06:	48 8b 03             	mov    (%rbx),%rax
  400c09:	48 83 f8 ff          	cmp    $0xffffffffffffffff,%rax
  400c0d:	75 f1                	jne    400c00 <__do_global_ctors_aux+0x20>
  400c0f:	48 83 c4 08          	add    $0x8,%rsp
  400c13:	5b                   	pop    %rbx
  400c14:	5d                   	pop    %rbp
  400c15:	c3                   	retq   
  400c16:	90                   	nop
  400c17:	90                   	nop

Disassembly of section .fini:

0000000000400c18 <_fini>:
  400c18:	48 83 ec 08          	sub    $0x8,%rsp
  400c1c:	e8 1f fb ff ff       	callq  400740 <__do_global_dtors_aux>
  400c21:	48 83 c4 08          	add    $0x8,%rsp
  400c25:	c3                   	retq   
