
stdcilk.exe:     file format elf64-x86-64


Disassembly of section .init:

0000000000400600 <_init>:
  400600:	48 83 ec 08          	sub    $0x8,%rsp
  400604:	e8 a3 00 00 00       	callq  4006ac <call_gmon_start>
  400609:	e8 a2 01 00 00       	callq  4007b0 <frame_dummy>
  40060e:	e8 9d 03 00 00       	callq  4009b0 <__do_global_ctors_aux>
  400613:	48 83 c4 08          	add    $0x8,%rsp
  400617:	c3                   	retq   

Disassembly of section .plt:

0000000000400618 <__cilkrts_sync@plt-0x10>:
  400618:	ff 35 32 08 20 00    	pushq  0x200832(%rip)        # 600e50 <_GLOBAL_OFFSET_TABLE_+0x8>
  40061e:	ff 25 34 08 20 00    	jmpq   *0x200834(%rip)        # 600e58 <_GLOBAL_OFFSET_TABLE_+0x10>
  400624:	0f 1f 40 00          	nopl   0x0(%rax)

0000000000400628 <__cilkrts_sync@plt>:
  400628:	ff 25 32 08 20 00    	jmpq   *0x200832(%rip)        # 600e60 <_GLOBAL_OFFSET_TABLE_+0x18>
  40062e:	68 00 00 00 00       	pushq  $0x0
  400633:	e9 e0 ff ff ff       	jmpq   400618 <_init+0x18>

0000000000400638 <__cilkrts_leave_frame@plt>:
  400638:	ff 25 2a 08 20 00    	jmpq   *0x20082a(%rip)        # 600e68 <_GLOBAL_OFFSET_TABLE_+0x20>
  40063e:	68 01 00 00 00       	pushq  $0x1
  400643:	e9 d0 ff ff ff       	jmpq   400618 <_init+0x18>

0000000000400648 <printf@plt>:
  400648:	ff 25 22 08 20 00    	jmpq   *0x200822(%rip)        # 600e70 <_GLOBAL_OFFSET_TABLE_+0x28>
  40064e:	68 02 00 00 00       	pushq  $0x2
  400653:	e9 c0 ff ff ff       	jmpq   400618 <_init+0x18>

0000000000400658 <__cilkrts_enter_frame@plt>:
  400658:	ff 25 1a 08 20 00    	jmpq   *0x20081a(%rip)        # 600e78 <_GLOBAL_OFFSET_TABLE_+0x30>
  40065e:	68 03 00 00 00       	pushq  $0x3
  400663:	e9 b0 ff ff ff       	jmpq   400618 <_init+0x18>

0000000000400668 <__libc_start_main@plt>:
  400668:	ff 25 12 08 20 00    	jmpq   *0x200812(%rip)        # 600e80 <_GLOBAL_OFFSET_TABLE_+0x38>
  40066e:	68 04 00 00 00       	pushq  $0x4
  400673:	e9 a0 ff ff ff       	jmpq   400618 <_init+0x18>

Disassembly of section .text:

0000000000400680 <_start>:
  400680:	31 ed                	xor    %ebp,%ebp
  400682:	49 89 d1             	mov    %rdx,%r9
  400685:	5e                   	pop    %rsi
  400686:	48 89 e2             	mov    %rsp,%rdx
  400689:	48 83 e4 f0          	and    $0xfffffffffffffff0,%rsp
  40068d:	50                   	push   %rax
  40068e:	54                   	push   %rsp
  40068f:	49 c7 c0 10 09 40 00 	mov    $0x400910,%r8
  400696:	48 c7 c1 20 09 40 00 	mov    $0x400920,%rcx
  40069d:	48 c7 c7 00 08 40 00 	mov    $0x400800,%rdi
  4006a4:	e8 bf ff ff ff       	callq  400668 <__libc_start_main@plt>
  4006a9:	f4                   	hlt    
  4006aa:	90                   	nop
  4006ab:	90                   	nop

00000000004006ac <call_gmon_start>:
  4006ac:	48 83 ec 08          	sub    $0x8,%rsp
  4006b0:	48 8b 05 89 07 20 00 	mov    0x200789(%rip),%rax        # 600e40 <_DYNAMIC+0x1a0>
  4006b7:	48 85 c0             	test   %rax,%rax
  4006ba:	74 02                	je     4006be <call_gmon_start+0x12>
  4006bc:	ff d0                	callq  *%rax
  4006be:	48 83 c4 08          	add    $0x8,%rsp
  4006c2:	c3                   	retq   
  4006c3:	90                   	nop
  4006c4:	90                   	nop
  4006c5:	90                   	nop
  4006c6:	90                   	nop
  4006c7:	90                   	nop
  4006c8:	90                   	nop
  4006c9:	90                   	nop
  4006ca:	90                   	nop
  4006cb:	90                   	nop
  4006cc:	90                   	nop
  4006cd:	90                   	nop
  4006ce:	90                   	nop
  4006cf:	90                   	nop

00000000004006d0 <deregister_tm_clones>:
  4006d0:	b8 9f 0e 60 00       	mov    $0x600e9f,%eax
  4006d5:	55                   	push   %rbp
  4006d6:	48 2d 98 0e 60 00    	sub    $0x600e98,%rax
  4006dc:	48 83 f8 0e          	cmp    $0xe,%rax
  4006e0:	48 89 e5             	mov    %rsp,%rbp
  4006e3:	77 02                	ja     4006e7 <deregister_tm_clones+0x17>
  4006e5:	5d                   	pop    %rbp
  4006e6:	c3                   	retq   
  4006e7:	b8 00 00 00 00       	mov    $0x0,%eax
  4006ec:	48 85 c0             	test   %rax,%rax
  4006ef:	74 f4                	je     4006e5 <deregister_tm_clones+0x15>
  4006f1:	5d                   	pop    %rbp
  4006f2:	bf 98 0e 60 00       	mov    $0x600e98,%edi
  4006f7:	ff e0                	jmpq   *%rax
  4006f9:	0f 1f 80 00 00 00 00 	nopl   0x0(%rax)

0000000000400700 <register_tm_clones>:
  400700:	b8 98 0e 60 00       	mov    $0x600e98,%eax
  400705:	55                   	push   %rbp
  400706:	48 2d 98 0e 60 00    	sub    $0x600e98,%rax
  40070c:	48 c1 f8 03          	sar    $0x3,%rax
  400710:	48 89 e5             	mov    %rsp,%rbp
  400713:	48 89 c2             	mov    %rax,%rdx
  400716:	48 c1 ea 3f          	shr    $0x3f,%rdx
  40071a:	48 01 d0             	add    %rdx,%rax
  40071d:	48 89 c6             	mov    %rax,%rsi
  400720:	48 d1 fe             	sar    %rsi
  400723:	75 02                	jne    400727 <register_tm_clones+0x27>
  400725:	5d                   	pop    %rbp
  400726:	c3                   	retq   
  400727:	ba 00 00 00 00       	mov    $0x0,%edx
  40072c:	48 85 d2             	test   %rdx,%rdx
  40072f:	74 f4                	je     400725 <register_tm_clones+0x25>
  400731:	5d                   	pop    %rbp
  400732:	bf 98 0e 60 00       	mov    $0x600e98,%edi
  400737:	ff e2                	jmpq   *%rdx
  400739:	0f 1f 80 00 00 00 00 	nopl   0x0(%rax)

0000000000400740 <__do_global_dtors_aux>:
  400740:	80 3d 51 07 20 00 00 	cmpb   $0x0,0x200751(%rip)        # 600e98 <__bss_start>
  400747:	75 5f                	jne    4007a8 <__do_global_dtors_aux+0x68>
  400749:	55                   	push   %rbp
  40074a:	48 89 e5             	mov    %rsp,%rbp
  40074d:	53                   	push   %rbx
  40074e:	bb 90 0c 60 00       	mov    $0x600c90,%ebx
  400753:	48 81 eb 88 0c 60 00 	sub    $0x600c88,%rbx
  40075a:	48 83 ec 08          	sub    $0x8,%rsp
  40075e:	48 8b 05 3b 07 20 00 	mov    0x20073b(%rip),%rax        # 600ea0 <dtor_idx.6143>
  400765:	48 c1 fb 03          	sar    $0x3,%rbx
  400769:	48 83 eb 01          	sub    $0x1,%rbx
  40076d:	48 39 d8             	cmp    %rbx,%rax
  400770:	73 24                	jae    400796 <__do_global_dtors_aux+0x56>
  400772:	66 0f 1f 44 00 00    	nopw   0x0(%rax,%rax,1)
  400778:	48 83 c0 01          	add    $0x1,%rax
  40077c:	48 89 05 1d 07 20 00 	mov    %rax,0x20071d(%rip)        # 600ea0 <dtor_idx.6143>
  400783:	ff 14 c5 88 0c 60 00 	callq  *0x600c88(,%rax,8)
  40078a:	48 8b 05 0f 07 20 00 	mov    0x20070f(%rip),%rax        # 600ea0 <dtor_idx.6143>
  400791:	48 39 d8             	cmp    %rbx,%rax
  400794:	72 e2                	jb     400778 <__do_global_dtors_aux+0x38>
  400796:	e8 35 ff ff ff       	callq  4006d0 <deregister_tm_clones>
  40079b:	c6 05 f6 06 20 00 01 	movb   $0x1,0x2006f6(%rip)        # 600e98 <__bss_start>
  4007a2:	48 83 c4 08          	add    $0x8,%rsp
  4007a6:	5b                   	pop    %rbx
  4007a7:	5d                   	pop    %rbp
  4007a8:	c3                   	retq   
  4007a9:	0f 1f 80 00 00 00 00 	nopl   0x0(%rax)

00000000004007b0 <frame_dummy>:
  4007b0:	48 83 3d e0 04 20 00 	cmpq   $0x0,0x2004e0(%rip)        # 600c98 <__JCR_END__>
  4007b7:	00 
  4007b8:	74 1b                	je     4007d5 <frame_dummy+0x25>
  4007ba:	b8 00 00 00 00       	mov    $0x0,%eax
  4007bf:	48 85 c0             	test   %rax,%rax
  4007c2:	74 11                	je     4007d5 <frame_dummy+0x25>
  4007c4:	55                   	push   %rbp
  4007c5:	bf 98 0c 60 00       	mov    $0x600c98,%edi
  4007ca:	48 89 e5             	mov    %rsp,%rbp
  4007cd:	ff d0                	callq  *%rax
  4007cf:	5d                   	pop    %rbp
  4007d0:	e9 2b ff ff ff       	jmpq   400700 <register_tm_clones>
  4007d5:	e9 26 ff ff ff       	jmpq   400700 <register_tm_clones>
  4007da:	90                   	nop
  4007db:	90                   	nop
  4007dc:	90                   	nop
  4007dd:	90                   	nop
  4007de:	90                   	nop
  4007df:	90                   	nop

00000000004007e0 <foo>:
  4007e0:	89 f8                	mov    %edi,%eax
  4007e2:	0f af c7             	imul   %edi,%eax
  4007e5:	c3                   	retq   
  4007e6:	66 2e 0f 1f 84 00 00 	nopw   %cs:0x0(%rax,%rax,1)
  4007ed:	00 00 00 

00000000004007f0 <bar>:
  4007f0:	8d 04 3f             	lea    (%rdi,%rdi,1),%eax
  4007f3:	c3                   	retq   
  4007f4:	90                   	nop
  4007f5:	90                   	nop
  4007f6:	90                   	nop
  4007f7:	90                   	nop
  4007f8:	90                   	nop
  4007f9:	90                   	nop
  4007fa:	90                   	nop
  4007fb:	90                   	nop
  4007fc:	90                   	nop
  4007fd:	90                   	nop
  4007fe:	90                   	nop
  4007ff:	90                   	nop

0000000000400800 <main>:
  400800:	41 57                	push   %r15
  400802:	41 56                	push   %r14
  400804:	41 55                	push   %r13
  400806:	41 54                	push   %r12
  400808:	55                   	push   %rbp
  400809:	53                   	push   %rbx
  40080a:	48 83 ec 68          	sub    $0x68,%rsp
  40080e:	48 8d 44 24 10       	lea    0x10(%rsp),%rax
  400813:	48 89 44 24 08       	mov    %rax,0x8(%rsp)
  400818:	48 89 c7             	mov    %rax,%rdi
  40081b:	48 8b 7c 24 08       	mov    0x8(%rsp),%rdi
  400820:	e8 33 fe ff ff       	callq  400658 <__cilkrts_enter_frame@plt>
  400825:	48 8b 7c 24 08       	mov    0x8(%rsp),%rdi
  40082a:	48 8b 7c 24 08       	mov    0x8(%rsp),%rdi
  40082f:	f6 44 24 10 02       	testb  $0x2,0x10(%rsp)
  400834:	74 74                	je     4008aa <main+0xaa>
  400836:	48 8b 44 24 08       	mov    0x8(%rsp),%rax
  40083b:	48 8d 54 24 60       	lea    0x60(%rsp),%rdx
  400840:	48 89 54 24 30       	mov    %rdx,0x30(%rsp)
  400845:	48 c7 40 28 a0 08 40 	movq   $0x4008a0,0x28(%rax)
  40084c:	00 
  40084d:	48 89 60 30          	mov    %rsp,0x30(%rax)
  400851:	48 8b 7c 24 08       	mov    0x8(%rsp),%rdi
  400856:	e8 cd fd ff ff       	callq  400628 <__cilkrts_sync@plt>
  40085b:	eb 4d                	jmp    4008aa <main+0xaa>
  40085d:	48 8d 44 24 10       	lea    0x10(%rsp),%rax
  400862:	48 89 44 24 08       	mov    %rax,0x8(%rsp)
  400867:	48 8b 7c 24 08       	mov    0x8(%rsp),%rdi
  40086c:	48 8b 54 24 18       	mov    0x18(%rsp),%rdx
  400871:	48 8b 44 24 20       	mov    0x20(%rsp),%rax
  400876:	48 89 50 48          	mov    %rdx,0x48(%rax)
  40087a:	48 c7 44 24 18 00 00 	movq   $0x0,0x18(%rsp)
  400881:	00 00 
  400883:	48 8b 7c 24 08       	mov    0x8(%rsp),%rdi
  400888:	83 7c 24 10 00       	cmpl   $0x0,0x10(%rsp)
  40088d:	75 67                	jne    4008f6 <main+0xf6>
  40088f:	31 c0                	xor    %eax,%eax
  400891:	48 83 c4 68          	add    $0x68,%rsp
  400895:	5b                   	pop    %rbx
  400896:	5d                   	pop    %rbp
  400897:	41 5c                	pop    %r12
  400899:	41 5d                	pop    %r13
  40089b:	41 5e                	pop    %r14
  40089d:	41 5f                	pop    %r15
  40089f:	c3                   	retq   
  4008a0:	48 8d 44 24 10       	lea    0x10(%rsp),%rax
  4008a5:	48 89 44 24 08       	mov    %rax,0x8(%rsp)
  4008aa:	48 8b 7c 24 08       	mov    0x8(%rsp),%rdi
  4008af:	be 23 00 00 00       	mov    $0x23,%esi
  4008b4:	bf fc 09 40 00       	mov    $0x4009fc,%edi
  4008b9:	31 c0                	xor    %eax,%eax
  4008bb:	e8 88 fd ff ff       	callq  400648 <printf@plt>
  4008c0:	48 8b 7c 24 08       	mov    0x8(%rsp),%rdi
  4008c5:	f6 44 24 10 02       	testb  $0x2,0x10(%rsp)
  4008ca:	74 9b                	je     400867 <main+0x67>
  4008cc:	48 8b 44 24 08       	mov    0x8(%rsp),%rax
  4008d1:	48 8d 54 24 60       	lea    0x60(%rsp),%rdx
  4008d6:	48 89 54 24 30       	mov    %rdx,0x30(%rsp)
  4008db:	48 c7 40 28 5d 08 40 	movq   $0x40085d,0x28(%rax)
  4008e2:	00 
  4008e3:	48 89 60 30          	mov    %rsp,0x30(%rax)
  4008e7:	48 8b 7c 24 08       	mov    0x8(%rsp),%rdi
  4008ec:	e8 37 fd ff ff       	callq  400628 <__cilkrts_sync@plt>
  4008f1:	e9 71 ff ff ff       	jmpq   400867 <main+0x67>
  4008f6:	48 8b 7c 24 08       	mov    0x8(%rsp),%rdi
  4008fb:	e8 38 fd ff ff       	callq  400638 <__cilkrts_leave_frame@plt>
  400900:	eb 8d                	jmp    40088f <main+0x8f>
  400902:	90                   	nop
  400903:	90                   	nop
  400904:	90                   	nop
  400905:	90                   	nop
  400906:	90                   	nop
  400907:	90                   	nop
  400908:	90                   	nop
  400909:	90                   	nop
  40090a:	90                   	nop
  40090b:	90                   	nop
  40090c:	90                   	nop
  40090d:	90                   	nop
  40090e:	90                   	nop
  40090f:	90                   	nop

0000000000400910 <__libc_csu_fini>:
  400910:	f3 c3                	repz retq 
  400912:	66 66 66 66 66 2e 0f 	data32 data32 data32 data32 nopw %cs:0x0(%rax,%rax,1)
  400919:	1f 84 00 00 00 00 00 

0000000000400920 <__libc_csu_init>:
  400920:	48 89 6c 24 d8       	mov    %rbp,-0x28(%rsp)
  400925:	4c 89 64 24 e0       	mov    %r12,-0x20(%rsp)
  40092a:	48 8d 2d 43 03 20 00 	lea    0x200343(%rip),%rbp        # 600c74 <__init_array_end>
  400931:	4c 8d 25 3c 03 20 00 	lea    0x20033c(%rip),%r12        # 600c74 <__init_array_end>
  400938:	4c 89 6c 24 e8       	mov    %r13,-0x18(%rsp)
  40093d:	4c 89 74 24 f0       	mov    %r14,-0x10(%rsp)
  400942:	4c 89 7c 24 f8       	mov    %r15,-0x8(%rsp)
  400947:	48 89 5c 24 d0       	mov    %rbx,-0x30(%rsp)
  40094c:	48 83 ec 38          	sub    $0x38,%rsp
  400950:	4c 29 e5             	sub    %r12,%rbp
  400953:	41 89 fd             	mov    %edi,%r13d
  400956:	49 89 f6             	mov    %rsi,%r14
  400959:	48 c1 fd 03          	sar    $0x3,%rbp
  40095d:	49 89 d7             	mov    %rdx,%r15
  400960:	e8 9b fc ff ff       	callq  400600 <_init>
  400965:	48 85 ed             	test   %rbp,%rbp
  400968:	74 1c                	je     400986 <__libc_csu_init+0x66>
  40096a:	31 db                	xor    %ebx,%ebx
  40096c:	0f 1f 40 00          	nopl   0x0(%rax)
  400970:	4c 89 fa             	mov    %r15,%rdx
  400973:	4c 89 f6             	mov    %r14,%rsi
  400976:	44 89 ef             	mov    %r13d,%edi
  400979:	41 ff 14 dc          	callq  *(%r12,%rbx,8)
  40097d:	48 83 c3 01          	add    $0x1,%rbx
  400981:	48 39 eb             	cmp    %rbp,%rbx
  400984:	72 ea                	jb     400970 <__libc_csu_init+0x50>
  400986:	48 8b 5c 24 08       	mov    0x8(%rsp),%rbx
  40098b:	48 8b 6c 24 10       	mov    0x10(%rsp),%rbp
  400990:	4c 8b 64 24 18       	mov    0x18(%rsp),%r12
  400995:	4c 8b 6c 24 20       	mov    0x20(%rsp),%r13
  40099a:	4c 8b 74 24 28       	mov    0x28(%rsp),%r14
  40099f:	4c 8b 7c 24 30       	mov    0x30(%rsp),%r15
  4009a4:	48 83 c4 38          	add    $0x38,%rsp
  4009a8:	c3                   	retq   
  4009a9:	90                   	nop
  4009aa:	90                   	nop
  4009ab:	90                   	nop
  4009ac:	90                   	nop
  4009ad:	90                   	nop
  4009ae:	90                   	nop
  4009af:	90                   	nop

00000000004009b0 <__do_global_ctors_aux>:
  4009b0:	55                   	push   %rbp
  4009b1:	48 89 e5             	mov    %rsp,%rbp
  4009b4:	53                   	push   %rbx
  4009b5:	bb 78 0c 60 00       	mov    $0x600c78,%ebx
  4009ba:	48 83 ec 08          	sub    $0x8,%rsp
  4009be:	48 8b 05 b3 02 20 00 	mov    0x2002b3(%rip),%rax        # 600c78 <__CTOR_LIST__>
  4009c5:	48 83 f8 ff          	cmp    $0xffffffffffffffff,%rax
  4009c9:	74 14                	je     4009df <__do_global_ctors_aux+0x2f>
  4009cb:	0f 1f 44 00 00       	nopl   0x0(%rax,%rax,1)
  4009d0:	48 83 eb 08          	sub    $0x8,%rbx
  4009d4:	ff d0                	callq  *%rax
  4009d6:	48 8b 03             	mov    (%rbx),%rax
  4009d9:	48 83 f8 ff          	cmp    $0xffffffffffffffff,%rax
  4009dd:	75 f1                	jne    4009d0 <__do_global_ctors_aux+0x20>
  4009df:	48 83 c4 08          	add    $0x8,%rsp
  4009e3:	5b                   	pop    %rbx
  4009e4:	5d                   	pop    %rbp
  4009e5:	c3                   	retq   
  4009e6:	90                   	nop
  4009e7:	90                   	nop

Disassembly of section .fini:

00000000004009e8 <_fini>:
  4009e8:	48 83 ec 08          	sub    $0x8,%rsp
  4009ec:	e8 4f fd ff ff       	callq  400740 <__do_global_dtors_aux>
  4009f1:	48 83 c4 08          	add    $0x8,%rsp
  4009f5:	c3                   	retq   
